; Function Attrs: mustprogress uwtable
define void @_ZN3g2o18SolverSLAM2DLinearC2ESt10unique_ptrINS_6SolverESt14default_deleteIS2_EE(ptr noundef nonnull align 8 dereferenceable(88) %0, ptr noundef captures(none) %1) unnamed_addr #4 align 2 personality ptr @__gxx_personality_v0 {
  %3 = alloca %"class.std::unique_ptr", align 8
  %4 = load i64, ptr %1, align 8, !tbaa !3
  store i64 %4, ptr %3, align 8, !tbaa !3
  store ptr null, ptr %1, align 8, !tbaa !3
  invoke void @_ZN3g2o32OptimizationAlgorithmGaussNewtonC2ESt10unique_ptrINS_6SolverESt14default_deleteIS2_EE(ptr noundef nonnull align 8 dereferenceable(88) %0, ptr noundef nonnull %3)
          to label %5 unwind label %10

5:                                                ; preds = %2
  %6 = load ptr, ptr %3, align 8, !tbaa !3
  %.not.i = icmp eq ptr %6, null
  br i1 %.not.i, label %_ZNSt10unique_ptrIN3g2o6SolverESt14default_deleteIS1_EED2Ev.exit, label %_ZNKSt14default_deleteIN3g2o6SolverEEclEPS1_.exit.i

_ZNKSt14default_deleteIN3g2o6SolverEEclEPS1_.exit.i: ; preds = %5
  %7 = load ptr, ptr %6, align 8, !tbaa !8
  %8 = getelementptr inbounds nuw i8, ptr %7, i64 8
  %9 = load ptr, ptr %8, align 8
  call void %9(ptr noundef nonnull align 8 dereferenceable(64) %6) #33
  br label %_ZNSt10unique_ptrIN3g2o6SolverESt14default_deleteIS1_EED2Ev.exit

_ZNSt10unique_ptrIN3g2o6SolverESt14default_deleteIS1_EED2Ev.exit: ; preds = %5, %_ZNKSt14default_deleteIN3g2o6SolverEEclEPS1_.exit.i
  store ptr getelementptr inbounds nuw inrange(-16, 88) (i8, ptr @_ZTVN3g2o18SolverSLAM2DLinearE, i64 16), ptr %0, align 8, !tbaa !8
  ret void

10:                                               ; preds = %2
  %11 = landingpad { ptr, i32 }
          cleanup
  %12 = load ptr, ptr %3, align 8, !tbaa !3
  %.not.i2 = icmp eq ptr %12, null
  br i1 %.not.i2, label %_ZNSt10unique_ptrIN3g2o6SolverESt14default_deleteIS1_EED2Ev.exit4, label %_ZNKSt14default_deleteIN3g2o6SolverEEclEPS1_.exit.i3

_ZNKSt14default_deleteIN3g2o6SolverEEclEPS1_.exit.i3: ; preds = %10
  %13 = load ptr, ptr %12, align 8, !tbaa !8
  %14 = getelementptr inbounds nuw i8, ptr %13, i64 8
  %15 = load ptr, ptr %14, align 8
  call void %15(ptr noundef nonnull align 8 dereferenceable(64) %12) #33
  br label %_ZNSt10unique_ptrIN3g2o6SolverESt14default_deleteIS1_EED2Ev.exit4

_ZNSt10unique_ptrIN3g2o6SolverESt14default_deleteIS1_EED2Ev.exit4: ; preds = %10, %_ZNKSt14default_deleteIN3g2o6SolverEEclEPS1_.exit.i3
  resume { ptr, i32 } %11
}